target datalayout = "e-m:e-p270:32:32-p271:32:32-p272:64:64-i64:64-i128:128-f80:128-n8:16:32:64-S128"
target triple = "x86_64-pc-linux-gnu"

%struct.mbedtls_ecjpake_context = type { i32, %struct.mbedtls_ecp_group, i32, i32, %struct.mbedtls_ecp_point, %struct.mbedtls_ecp_point, %struct.mbedtls_ecp_point, %struct.mbedtls_ecp_point, %struct.mbedtls_ecp_point, %struct.mbedtls_mpi, %struct.mbedtls_mpi, %struct.mbedtls_mpi }
%struct.mbedtls_ecp_group = type { i32, %struct.mbedtls_mpi, %struct.mbedtls_mpi, %struct.mbedtls_mpi, %struct.mbedtls_ecp_point, %struct.mbedtls_mpi, i64, i64, i32, ptr, ptr, ptr, ptr, ptr, i64 }
%struct.mbedtls_ecp_point = type { %struct.mbedtls_mpi, %struct.mbedtls_mpi, %struct.mbedtls_mpi }
%struct.mbedtls_mpi = type { ptr, i16, i16 }

@ecjpake_id = internal constant [2 x ptr] [ptr @.str.6, ptr @.str.7], align 16

; Function Attrs: nounwind uwtable
define internal i32 @ecjpake_ecp_add3(ptr noundef %0, ptr noundef %1, ptr noundef %2, ptr noundef %3, ptr noundef %4) #0 {
  %6 = alloca ptr, align 8
  %7 = alloca ptr, align 8
  %8 = alloca ptr, align 8
  %9 = alloca ptr, align 8
  %10 = alloca ptr, align 8
  %11 = alloca i32, align 4
  %12 = alloca %struct.mbedtls_mpi, align 8
  store ptr %0, ptr %6, align 8, !tbaa !26
  store ptr %1, ptr %7, align 8, !tbaa !28
  store ptr %2, ptr %8, align 8, !tbaa !28
  store ptr %3, ptr %9, align 8, !tbaa !28
  store ptr %4, ptr %10, align 8, !tbaa !28
  call void @llvm.lifetime.start.p0(i64 4, ptr %11) #9
  store i32 -110, ptr %11, align 4, !tbaa !19
  call void @llvm.lifetime.start.p0(i64 16, ptr %12) #9
  call void @mbedtls_mpi_init(ptr noundef %12)
  br label %13

13:                                               ; preds = %5
  %14 = call i32 @mbedtls_mpi_lset(ptr noundef %12, i64 noundef 1)
  store i32 %14, ptr %11, align 4, !tbaa !19
  %15 = icmp ne i32 %14, 0
  br i1 %15, label %16, label %17

16:                                               ; preds = %13
  br label %42

17:                                               ; preds = %13
  br label %18

18:                                               ; preds = %17
  br label %19

19:                                               ; preds = %18
  br label %20

20:                                               ; preds = %19
  %21 = load ptr, ptr %6, align 8, !tbaa !26
  %22 = load ptr, ptr %7, align 8, !tbaa !28
  %23 = load ptr, ptr %8, align 8, !tbaa !28
  %24 = load ptr, ptr %9, align 8, !tbaa !28
  %25 = call i32 @mbedtls_ecp_muladd(ptr noundef %21, ptr noundef %22, ptr noundef %12, ptr noundef %23, ptr noundef %12, ptr noundef %24)
  store i32 %25, ptr %11, align 4, !tbaa !19
  %26 = icmp ne i32 %25, 0
  br i1 %26, label %27, label %28

27:                                               ; preds = %20
  br label %42

28:                                               ; preds = %20
  br label %29

29:                                               ; preds = %28
  br label %30

30:                                               ; preds = %29
  br label %31

31:                                               ; preds = %30
  %32 = load ptr, ptr %6, align 8, !tbaa !26
  %33 = load ptr, ptr %7, align 8, !tbaa !28
  %34 = load ptr, ptr %7, align 8, !tbaa !28
  %35 = load ptr, ptr %10, align 8, !tbaa !28
  %36 = call i32 @mbedtls_ecp_muladd(ptr noundef %32, ptr noundef %33, ptr noundef %12, ptr noundef %34, ptr noundef %12, ptr noundef %35)
  store i32 %36, ptr %11, align 4, !tbaa !19
  %37 = icmp ne i32 %36, 0
  br i1 %37, label %38, label %39

38:                                               ; preds = %31
  br label %42

39:                                               ; preds = %31
  br label %40

40:                                               ; preds = %39
  br label %41

41:                                               ; preds = %40
  br label %42

42:                                               ; preds = %41, %38, %27, %16
  call void @mbedtls_mpi_free(ptr noundef %12)
  %43 = load i32, ptr %11, align 4, !tbaa !19
  call void @llvm.lifetime.end.p0(i64 16, ptr %12) #9
  call void @llvm.lifetime.end.p0(i64 4, ptr %11) #9
  ret i32 %43
}

; Function Attrs: nounwind uwtable
define hidden i32 @mbedtls_ecjpake_write_round_two(ptr noundef %0, ptr noundef %1, i64 noundef %2, ptr noundef %3, ptr noundef %4, ptr noundef %5) #0 {
  %7 = alloca ptr, align 8
  %8 = alloca ptr, align 8
  %9 = alloca i64, align 8
  %10 = alloca ptr, align 8
  %11 = alloca ptr, align 8
  %12 = alloca ptr, align 8
  %13 = alloca i32, align 4
  %14 = alloca %struct.mbedtls_ecp_point, align 8
  %15 = alloca %struct.mbedtls_ecp_point, align 8
  %16 = alloca %struct.mbedtls_mpi, align 8
  %17 = alloca ptr, align 8
  %18 = alloca ptr, align 8
  %19 = alloca i64, align 8
  store ptr %0, ptr %7, align 8, !tbaa !3
  store ptr %1, ptr %8, align 8, !tbaa !20
  store i64 %2, ptr %9, align 8, !tbaa !22
  store ptr %3, ptr %10, align 8, !tbaa !29
  store ptr %4, ptr %11, align 8, !tbaa !30
  store ptr %5, ptr %12, align 8, !tbaa !30
  call void @llvm.lifetime.start.p0(i64 4, ptr %13) #9
  store i32 -110, ptr %13, align 4, !tbaa !19
  call void @llvm.lifetime.start.p0(i64 48, ptr %14) #9
  call void @llvm.lifetime.start.p0(i64 48, ptr %15) #9
  call void @llvm.lifetime.start.p0(i64 16, ptr %16) #9
  call void @llvm.lifetime.start.p0(i64 8, ptr %17) #9
  %20 = load ptr, ptr %8, align 8, !tbaa !20
  store ptr %20, ptr %17, align 8, !tbaa !20
  call void @llvm.lifetime.start.p0(i64 8, ptr %18) #9
  %21 = load ptr, ptr %8, align 8, !tbaa !20
  %22 = load i64, ptr %9, align 8, !tbaa !22
  %23 = getelementptr inbounds nuw i8, ptr %21, i64 %22
  store ptr %23, ptr %18, align 8, !tbaa !20
  call void @llvm.lifetime.start.p0(i64 8, ptr %19) #9
  call void @mbedtls_ecp_point_init(ptr noundef %14)
  call void @mbedtls_ecp_point_init(ptr noundef %15)
  call void @mbedtls_mpi_init(ptr noundef %16)
  br label %24

24:                                               ; preds = %6
  %25 = load ptr, ptr %7, align 8, !tbaa !3
  %26 = getelementptr inbounds nuw %struct.mbedtls_ecjpake_context, ptr %25, i32 0, i32 1
  %27 = load ptr, ptr %7, align 8, !tbaa !3
  %28 = getelementptr inbounds nuw %struct.mbedtls_ecjpake_context, ptr %27, i32 0, i32 6
  %29 = load ptr, ptr %7, align 8, !tbaa !3
  %30 = getelementptr inbounds nuw %struct.mbedtls_ecjpake_context, ptr %29, i32 0, i32 7
  %31 = load ptr, ptr %7, align 8, !tbaa !3
  %32 = getelementptr inbounds nuw %struct.mbedtls_ecjpake_context, ptr %31, i32 0, i32 4
  %33 = call i32 @ecjpake_ecp_add3(ptr noundef %26, ptr noundef %14, ptr noundef %28, ptr noundef %30, ptr noundef %32)
  store i32 %33, ptr %13, align 4, !tbaa !19
  %34 = icmp ne i32 %33, 0
  br i1 %34, label %35, label %36

35:                                               ; preds = %24
  br label %151

36:                                               ; preds = %24
  br label %37

37:                                               ; preds = %36
  br label %38

38:                                               ; preds = %37
  br label %39

39:                                               ; preds = %38
  %40 = load ptr, ptr %7, align 8, !tbaa !3
  %41 = getelementptr inbounds nuw %struct.mbedtls_ecjpake_context, ptr %40, i32 0, i32 10
  %42 = load ptr, ptr %7, align 8, !tbaa !3
  %43 = getelementptr inbounds nuw %struct.mbedtls_ecjpake_context, ptr %42, i32 0, i32 11
  %44 = load ptr, ptr %7, align 8, !tbaa !3
  %45 = getelementptr inbounds nuw %struct.mbedtls_ecjpake_context, ptr %44, i32 0, i32 1
  %46 = getelementptr inbounds nuw %struct.mbedtls_ecp_group, ptr %45, i32 0, i32 5
  %47 = load ptr, ptr %11, align 8, !tbaa !30
  %48 = load ptr, ptr %12, align 8, !tbaa !30
  %49 = call i32 @ecjpake_mul_secret(ptr noundef %16, i32 noundef 1, ptr noundef %41, ptr noundef %43, ptr noundef %46, ptr noundef %47, ptr noundef %48)
  store i32 %49, ptr %13, align 4, !tbaa !19
  %50 = icmp ne i32 %49, 0
  br i1 %50, label %51, label %52

51:                                               ; preds = %39
  br label %151

52:                                               ; preds = %39
  br label %53

53:                                               ; preds = %52
  br label %54

54:                                               ; preds = %53
  br label %55

55:                                               ; preds = %54
  %56 = load ptr, ptr %7, align 8, !tbaa !3
  %57 = getelementptr inbounds nuw %struct.mbedtls_ecjpake_context, ptr %56, i32 0, i32 1
  %58 = load ptr, ptr %11, align 8, !tbaa !30
  %59 = load ptr, ptr %12, align 8, !tbaa !30
  %60 = call i32 @mbedtls_ecp_mul(ptr noundef %57, ptr noundef %15, ptr noundef %16, ptr noundef %14, ptr noundef %58, ptr noundef %59)
  store i32 %60, ptr %13, align 4, !tbaa !19
  %61 = icmp ne i32 %60, 0
  br i1 %61, label %62, label %63

62:                                               ; preds = %55
  br label %151

63:                                               ; preds = %55
  br label %64

64:                                               ; preds = %63
  br label %65

65:                                               ; preds = %64
  %66 = load ptr, ptr %7, align 8, !tbaa !3
  %67 = getelementptr inbounds nuw %struct.mbedtls_ecjpake_context, ptr %66, i32 0, i32 2
  %68 = load i32, ptr %67, align 8, !tbaa !23
  %69 = icmp eq i32 %68, 1
  br i1 %69, label %70, label %94

70:                                               ; preds = %65
  %71 = load ptr, ptr %18, align 8, !tbaa !20
  %72 = load ptr, ptr %17, align 8, !tbaa !20
  %73 = icmp ult ptr %71, %72
  br i1 %73, label %74, label %75

74:                                               ; preds = %70
  store i32 -20224, ptr %13, align 4, !tbaa !19
  br label %151

75:                                               ; preds = %70
  br label %76

76:                                               ; preds = %75
  %77 = load ptr, ptr %7, align 8, !tbaa !3
  %78 = getelementptr inbounds nuw %struct.mbedtls_ecjpake_context, ptr %77, i32 0, i32 1
  %79 = load ptr, ptr %17, align 8, !tbaa !20
  %80 = load ptr, ptr %18, align 8, !tbaa !20
  %81 = load ptr, ptr %17, align 8, !tbaa !20
  %82 = ptrtoint ptr %80 to i64
  %83 = ptrtoint ptr %81 to i64
  %84 = sub i64 %82, %83
  %85 = call i32 @mbedtls_ecp_tls_write_group(ptr noundef %78, ptr noundef %19, ptr noundef %79, i64 noundef %84)
  store i32 %85, ptr %13, align 4, !tbaa !19
  %86 = icmp ne i32 %85, 0
  br i1 %86, label %87, label %88

87:                                               ; preds = %76
  br label %151

88:                                               ; preds = %76
  br label %89

89:                                               ; preds = %88
  br label %90

90:                                               ; preds = %89
  %91 = load i64, ptr %19, align 8, !tbaa !22
  %92 = load ptr, ptr %17, align 8, !tbaa !20
  %93 = getelementptr inbounds nuw i8, ptr %92, i64 %91
  store ptr %93, ptr %17, align 8, !tbaa !20
  br label %94

94:                                               ; preds = %90, %65
  %95 = load ptr, ptr %18, align 8, !tbaa !20
  %96 = load ptr, ptr %17, align 8, !tbaa !20
  %97 = icmp ult ptr %95, %96
  br i1 %97, label %98, label %99

98:                                               ; preds = %94
  store i32 -20224, ptr %13, align 4, !tbaa !19
  br label %151

99:                                               ; preds = %94
  br label %100

100:                                              ; preds = %99
  %101 = load ptr, ptr %7, align 8, !tbaa !3
  %102 = getelementptr inbounds nuw %struct.mbedtls_ecjpake_context, ptr %101, i32 0, i32 1
  %103 = load ptr, ptr %7, align 8, !tbaa !3
  %104 = getelementptr inbounds nuw %struct.mbedtls_ecjpake_context, ptr %103, i32 0, i32 3
  %105 = load i32, ptr %104, align 4, !tbaa !18
  %106 = load ptr, ptr %17, align 8, !tbaa !20
  %107 = load ptr, ptr %18, align 8, !tbaa !20
  %108 = load ptr, ptr %17, align 8, !tbaa !20
  %109 = ptrtoint ptr %107 to i64
  %110 = ptrtoint ptr %108 to i64
  %111 = sub i64 %109, %110
  %112 = call i32 @mbedtls_ecp_tls_write_point(ptr noundef %102, ptr noundef %15, i32 noundef %105, ptr noundef %19, ptr noundef %106, i64 noundef %111)
  store i32 %112, ptr %13, align 4, !tbaa !19
  %113 = icmp ne i32 %112, 0
  br i1 %113, label %114, label %115

114:                                              ; preds = %100
  br label %151

115:                                              ; preds = %100
  br label %116

116:                                              ; preds = %115
  br label %117

117:                                              ; preds = %116
  %118 = load i64, ptr %19, align 8, !tbaa !22
  %119 = load ptr, ptr %17, align 8, !tbaa !20
  %120 = getelementptr inbounds nuw i8, ptr %119, i64 %118
  store ptr %120, ptr %17, align 8, !tbaa !20
  br label %121

121:                                              ; preds = %117
  %122 = load ptr, ptr %7, align 8, !tbaa !3
  %123 = getelementptr inbounds nuw %struct.mbedtls_ecjpake_context, ptr %122, i32 0, i32 0
  %124 = load i32, ptr %123, align 8, !tbaa !8
  %125 = load ptr, ptr %7, align 8, !tbaa !3
  %126 = getelementptr inbounds nuw %struct.mbedtls_ecjpake_context, ptr %125, i32 0, i32 1
  %127 = load ptr, ptr %7, align 8, !tbaa !3
  %128 = getelementptr inbounds nuw %struct.mbedtls_ecjpake_context, ptr %127, i32 0, i32 3
  %129 = load i32, ptr %128, align 4, !tbaa !18
  %130 = load ptr, ptr %7, align 8, !tbaa !3
  %131 = getelementptr inbounds nuw %struct.mbedtls_ecjpake_context, ptr %130, i32 0, i32 2
  %132 = load i32, ptr %131, align 8, !tbaa !23
  %133 = zext i32 %132 to i64
  %134 = getelementptr inbounds nuw [2 x ptr], ptr @ecjpake_id, i64 0, i64 %133
  %135 = load ptr, ptr %134, align 8, !tbaa !20
  %136 = load ptr, ptr %18, align 8, !tbaa !20
  %137 = load ptr, ptr %11, align 8, !tbaa !30
  %138 = load ptr, ptr %12, align 8, !tbaa !30
  %139 = call i32 @ecjpake_zkp_write(i32 noundef %124, ptr noundef %126, i32 noundef %129, ptr noundef %14, ptr noundef %16, ptr noundef %15, ptr noundef %135, ptr noundef %17, ptr noundef %136, ptr noundef %137, ptr noundef %138)
  store i32 %139, ptr %13, align 4, !tbaa !19
  %140 = icmp ne i32 %139, 0
  br i1 %140, label %141, label %142

141:                                              ; preds = %121
  br label %151

142:                                              ; preds = %121
  br label %143

143:                                              ; preds = %142
  br label %144

144:                                              ; preds = %143
  %145 = load ptr, ptr %17, align 8, !tbaa !20
  %146 = load ptr, ptr %8, align 8, !tbaa !20
  %147 = ptrtoint ptr %145 to i64
  %148 = ptrtoint ptr %146 to i64
  %149 = sub i64 %147, %148
  %150 = load ptr, ptr %10, align 8, !tbaa !29
  store i64 %149, ptr %150, align 8, !tbaa !22
  br label %151

151:                                              ; preds = %144, %141, %114, %98, %87, %74, %62, %51, %35
  call void @mbedtls_ecp_point_free(ptr noundef %14)
  call void @mbedtls_ecp_point_free(ptr noundef %15)
  call void @mbedtls_mpi_free(ptr noundef %16)
  %152 = load i32, ptr %13, align 4, !tbaa !19
  call void @llvm.lifetime.end.p0(i64 8, ptr %19) #9
  call void @llvm.lifetime.end.p0(i64 8, ptr %18) #9
  call void @llvm.lifetime.end.p0(i64 8, ptr %17) #9
  call void @llvm.lifetime.end.p0(i64 16, ptr %16) #9
  call void @llvm.lifetime.end.p0(i64 48, ptr %15) #9
  call void @llvm.lifetime.end.p0(i64 48, ptr %14) #9
  call void @llvm.lifetime.end.p0(i64 4, ptr %13) #9
  ret i32 %152
}