; Function Attrs: nounwind uwtable
define hidden i32 @mbedtls_ecjpake_write_round_two(ptr noundef %0, ptr noundef %1, i64 noundef %2, ptr noundef writeonly captures(none) %3, ptr noundef %4, ptr noundef %5) local_unnamed_addr #0 {
  %7 = alloca %struct.mbedtls_mpi, align 8
  %8 = alloca %struct.mbedtls_ecp_point, align 8
  %9 = alloca %struct.mbedtls_ecp_point, align 8
  %10 = alloca %struct.mbedtls_mpi, align 8
  %11 = alloca ptr, align 8
  %12 = alloca i64, align 8
  call void @llvm.lifetime.start.p0(i64 48, ptr nonnull %8) #15
  call void @llvm.lifetime.start.p0(i64 48, ptr nonnull %9) #15
  call void @llvm.lifetime.start.p0(i64 16, ptr nonnull %10) #15
  call void @llvm.lifetime.start.p0(i64 8, ptr nonnull %11) #15
  %13 = getelementptr inbounds nuw i8, ptr %1, i64 %2
  call void @llvm.lifetime.start.p0(i64 8, ptr nonnull %12) #15
  call void @mbedtls_ecp_point_init(ptr noundef nonnull %8) #15
  call void @mbedtls_ecp_point_init(ptr noundef nonnull %9) #15
  call void @mbedtls_mpi_init(ptr noundef nonnull %10) #15
  %14 = getelementptr inbounds nuw i8, ptr %0, i64 8
  %15 = getelementptr inbounds nuw i8, ptr %0, i64 208
  call void @llvm.lifetime.start.p0(i64 16, ptr nonnull %7) #15
  call void @mbedtls_mpi_init(ptr noundef nonnull %7) #15
  %16 = call i32 @mbedtls_mpi_lset(ptr noundef nonnull %7, i64 noundef 1) #15
  %.not.i = icmp eq i32 %16, 0
  br i1 %.not.i, label %17, label %ecjpake_ecp_add3.exit.thread

17:                                               ; preds = %6
  %18 = getelementptr inbounds nuw i8, ptr %0, i64 352
  %19 = getelementptr inbounds nuw i8, ptr %0, i64 304
  %20 = call i32 @mbedtls_ecp_muladd(ptr noundef nonnull %14, ptr noundef nonnull %8, ptr noundef nonnull %7, ptr noundef nonnull %19, ptr noundef nonnull %7, ptr noundef nonnull %18) #15
  %.not10.i = icmp eq i32 %20, 0
  br i1 %.not10.i, label %ecjpake_ecp_add3.exit, label %ecjpake_ecp_add3.exit.thread

ecjpake_ecp_add3.exit.thread:                     ; preds = %6, %17
  %.0.i.ph = phi i32 [ %20, %17 ], [ %16, %6 ]
  call void @mbedtls_mpi_free(ptr noundef nonnull %7) #15
  call void @llvm.lifetime.end.p0(i64 16, ptr nonnull %7) #15
  br label %63

ecjpake_ecp_add3.exit:                            ; preds = %17
  %21 = call i32 @mbedtls_ecp_muladd(ptr noundef nonnull %14, ptr noundef nonnull %8, ptr noundef nonnull %7, ptr noundef nonnull %8, ptr noundef nonnull %7, ptr noundef nonnull %15) #15
  call void @mbedtls_mpi_free(ptr noundef nonnull %7) #15
  call void @llvm.lifetime.end.p0(i64 16, ptr nonnull %7) #15
  %.not = icmp eq i32 %21, 0
  br i1 %.not, label %22, label %63

22:                                               ; preds = %ecjpake_ecp_add3.exit
  %23 = getelementptr inbounds nuw i8, ptr %0, i64 464
  %24 = getelementptr inbounds nuw i8, ptr %0, i64 480
  %25 = getelementptr inbounds nuw i8, ptr %0, i64 112
  %26 = call fastcc i32 @ecjpake_mul_secret(ptr noundef %10, i32 noundef 1, ptr noundef nonnull %23, ptr noundef nonnull %24, ptr noundef nonnull %25, ptr noundef %4, ptr noundef %5)
  %.not42 = icmp eq i32 %26, 0
  br i1 %.not42, label %27, label %63

27:                                               ; preds = %22
  %28 = call i32 @mbedtls_ecp_mul(ptr noundef nonnull %14, ptr noundef nonnull %9, ptr noundef nonnull %10, ptr noundef nonnull %8, ptr noundef %4, ptr noundef %5) #15
  %.not43 = icmp eq i32 %28, 0
  br i1 %.not43, label %29, label %63

29:                                               ; preds = %27
  %30 = getelementptr inbounds nuw i8, ptr %0, i64 200
  %31 = load i32, ptr %30, align 8, !tbaa !17
  %32 = icmp eq i32 %31, 1
  br i1 %32, label %33, label %38

33:                                               ; preds = %29
  %34 = call i32 @mbedtls_ecp_tls_write_group(ptr noundef nonnull %14, ptr noundef nonnull %12, ptr noundef %1, i64 noundef %2) #15
  %.not44 = icmp eq i32 %34, 0
  br i1 %.not44, label %35, label %63

35:                                               ; preds = %33
  %36 = load i64, ptr %12, align 8, !tbaa !22
  %37 = getelementptr inbounds nuw i8, ptr %1, i64 %36
  store ptr %37, ptr %11, align 8, !tbaa !20
  br label %38

38:                                               ; preds = %35, %29
  %39 = phi ptr [ %37, %35 ], [ %1, %29 ]
  %40 = icmp ult ptr %13, %39
  br i1 %40, label %63, label %41

41:                                               ; preds = %38
  %42 = getelementptr inbounds nuw i8, ptr %0, i64 204
  %43 = load i32, ptr %42, align 4, !tbaa !16
  %44 = ptrtoint ptr %13 to i64
  %45 = ptrtoint ptr %39 to i64
  %46 = sub i64 %44, %45
  %47 = call i32 @mbedtls_ecp_tls_write_point(ptr noundef nonnull %14, ptr noundef nonnull %9, i32 noundef %43, ptr noundef nonnull %12, ptr noundef %39, i64 noundef %46) #15
  %.not45 = icmp eq i32 %47, 0
  br i1 %.not45, label %48, label %63

48:                                               ; preds = %41
  %49 = load i64, ptr %12, align 8, !tbaa !22
  %50 = getelementptr inbounds nuw i8, ptr %39, i64 %49
  store ptr %50, ptr %11, align 8, !tbaa !20
  %51 = load i32, ptr %0, align 8, !tbaa !3
  %52 = load i32, ptr %42, align 4, !tbaa !16
  %53 = load i32, ptr %30, align 8, !tbaa !17
  %54 = zext i32 %53 to i64
  %55 = getelementptr inbounds nuw [2 x ptr], ptr @ecjpake_id, i64 0, i64 %54
  %56 = load ptr, ptr %55, align 8, !tbaa !20
  %57 = call fastcc i32 @ecjpake_zkp_write(i32 noundef %51, ptr noundef nonnull %14, i32 noundef %52, ptr noundef nonnull %8, ptr noundef nonnull %10, ptr noundef nonnull %9, ptr noundef %56, ptr noundef %11, ptr noundef %13, ptr noundef %4, ptr noundef %5)
  %.not46 = icmp eq i32 %57, 0
  br i1 %.not46, label %58, label %63

58:                                               ; preds = %48
  %59 = load ptr, ptr %11, align 8, !tbaa !20
  %60 = ptrtoint ptr %59 to i64
  %61 = ptrtoint ptr %1 to i64
  %62 = sub i64 %60, %61
  store i64 %62, ptr %3, align 8, !tbaa !22
  br label %63

63:                                               ; preds = %ecjpake_ecp_add3.exit.thread, %38, %48, %41, %33, %27, %22, %ecjpake_ecp_add3.exit, %58
  %.0 = phi i32 [ %21, %ecjpake_ecp_add3.exit ], [ %26, %22 ], [ %28, %27 ], [ %34, %33 ], [ %47, %41 ], [ %57, %48 ], [ 0, %58 ], [ -20224, %38 ], [ %.0.i.ph, %ecjpake_ecp_add3.exit.thread ]
  call void @mbedtls_ecp_point_free(ptr noundef nonnull %8) #15
  call void @mbedtls_ecp_point_free(ptr noundef nonnull %9) #15
  call void @mbedtls_mpi_free(ptr noundef nonnull %10) #15
  call void @llvm.lifetime.end.p0(i64 8, ptr nonnull %12) #15
  call void @llvm.lifetime.end.p0(i64 8, ptr nonnull %11) #15
  call void @llvm.lifetime.end.p0(i64 16, ptr nonnull %10) #15
  call void @llvm.lifetime.end.p0(i64 48, ptr nonnull %9) #15
  call void @llvm.lifetime.end.p0(i64 48, ptr nonnull %8) #15
  ret i32 %.0
}